; Function Attrs: mustprogress nofree norecurse nosync nounwind willreturn memory(read, inaccessiblemem: none) uwtable
define noundef zeroext i1 @_Z22haveFepPerturbedMassesRK10gmx_mtop_t(ptr noundef nonnull readonly align 8 captures(none) dereferenceable(768) %0) local_unnamed_addr #2 {
  %2 = getelementptr inbounds nuw i8, ptr %0, i64 112
  %3 = load ptr, ptr %2, align 8, !tbaa !267
  %4 = getelementptr inbounds nuw i8, ptr %0, i64 120
  %5 = load ptr, ptr %4, align 8, !tbaa !267
  %.not2430.not = icmp eq ptr %3, %5
  br i1 %.not2430.not, label %.thread, label %.preheader

.preheader:                                       ; preds = %1, %._crit_edge
  %.sroa.020.031 = phi ptr [ %17, %._crit_edge ], [ %3, %1 ]
  %6 = getelementptr inbounds nuw i8, ptr %.sroa.020.031, i64 8
  %7 = load i32, ptr %6, align 8, !tbaa !132
  %.not28 = icmp sgt i32 %7, 0
  br i1 %.not28, label %.lr.ph, label %._crit_edge

.lr.ph:                                           ; preds = %.preheader
  %8 = getelementptr inbounds nuw i8, ptr %.sroa.020.031, i64 16
  %9 = load ptr, ptr %8, align 8, !tbaa !167
  %wide.trip.count = zext nneg i32 %7 to i64
  br label %11

10:                                               ; preds = %11
  %indvars.iv.next = add nuw nsw i64 %indvars.iv, 1
  %exitcond.not = icmp eq i64 %indvars.iv.next, %wide.trip.count
  br i1 %exitcond.not, label %._crit_edge, label %11, !llvm.loop !291

11:                                               ; preds = %.lr.ph, %10
  %indvars.iv = phi i64 [ 0, %.lr.ph ], [ %indvars.iv.next, %10 ]
  %12 = getelementptr inbounds nuw %struct.t_atom, ptr %9, i64 %indvars.iv
  %13 = load float, ptr %12, align 4, !tbaa !288
  %14 = getelementptr inbounds nuw i8, ptr %12, i64 8
  %15 = load float, ptr %14, align 4, !tbaa !287
  %16 = fcmp oeq float %13, %15
  br i1 %16, label %10, label %.thread

._crit_edge:                                      ; preds = %10, %.preheader
  %17 = getelementptr inbounds nuw i8, ptr %.sroa.020.031, i64 2408
  %.not24.not = icmp eq ptr %17, %5
  br i1 %.not24.not, label %.thread, label %.preheader

.thread:                                          ; preds = %._crit_edge, %11, %1
  %.not2427 = phi i1 [ false, %1 ], [ true, %11 ], [ false, %._crit_edge ]
  ret i1 %.not2427
}